target datalayout = "e-m:e-p270:32:32-p271:32:32-p272:64:64-i64:64-i128:128-f80:128-n8:16:32:64-S128"
target triple = "x86_64-pc-linux-gnu"

@.str.79 = private unnamed_addr constant [3 x i8] c"%d\00", align 1
@.str.3034 = private unnamed_addr constant [14 x i8] c"unknown ra %u\00", align 1

; Function Attrs: null_pointer_is_valid sspstrong uwtable
define internal void @ra_rand_ref_convert(ptr noundef %0, i32 noundef %1) #1 {
  %3 = alloca ptr, align 8
  %4 = alloca i32, align 4
  %5 = alloca i8, align 1
  store ptr %0, ptr %3, align 8
  store i32 %1, ptr %4, align 4
  call void @llvm.lifetime.start.p0(i64 1, ptr %5) #11
  %6 = load i32, ptr %4, align 4
  %7 = call zeroext i1 @ra_channel_request_parse(ptr noundef null, ptr noundef %5, i32 noundef %6)
  br i1 %7, label %8, label %15

8:                                                ; preds = %2
  %9 = load ptr, ptr %3, align 8
  %10 = load ptr, ptr %3, align 8
  %11 = call i64 @llvm.objectsize.i64.p0(ptr %10, i1 false, i1 true, i1 true)
  %12 = load i8, ptr %5, align 1
  %13 = zext i8 %12 to i32
  %14 = call i32 (ptr, i64, i32, i64, ptr, ...) @__snprintf_chk(ptr noundef %9, i64 noundef 240, i32 noundef 2, i64 noundef %11, ptr noundef @.str.79, i32 noundef %13)
  br label %21

15:                                               ; preds = %2
  %16 = load ptr, ptr %3, align 8
  %17 = load ptr, ptr %3, align 8
  %18 = call i64 @llvm.objectsize.i64.p0(ptr %17, i1 false, i1 true, i1 true)
  %19 = load i32, ptr %4, align 4
  %20 = call i32 (ptr, i64, i32, i64, ptr, ...) @__snprintf_chk(ptr noundef %16, i64 noundef 240, i32 noundef 2, i64 noundef %18, ptr noundef @.str.3034, i32 noundef %19)
  br label %21

21:                                               ; preds = %15, %8
  call void @llvm.lifetime.end.p0(i64 1, ptr %5) #11
  ret void
}