; Function Attrs: null_pointer_is_valid sspstrong uwtable
define internal void @ra_rand_ref_convert(ptr noundef %0, i32 noundef %1) #3 {
  %3 = alloca i8, align 1
  call void @llvm.lifetime.start.p0(i64 1, ptr nonnull %3) #11
  %4 = call fastcc zeroext i1 @ra_channel_request_parse(ptr noundef null, ptr noundef nonnull %3, i32 noundef %1)
  br i1 %4, label %5, label %9

5:                                                ; preds = %2
  %6 = load i8, ptr %3, align 1
  %7 = zext i8 %6 to i32
  %8 = call i32 (ptr, i64, i32, i64, ptr, ...) @__snprintf_chk(ptr noundef %0, i64 noundef 240, i32 noundef 2, i64 noundef -1, ptr noundef nonnull @.str.79, i32 noundef %7)
  br label %11

9:                                                ; preds = %2
  %10 = call i32 (ptr, i64, i32, i64, ptr, ...) @__snprintf_chk(ptr noundef %0, i64 noundef 240, i32 noundef 2, i64 noundef -1, ptr noundef nonnull @.str.3034, i32 noundef %1)
  br label %11

11:                                               ; preds = %9, %5
  call void @llvm.lifetime.end.p0(i64 1, ptr nonnull %3) #11
  ret void
}